target datalayout = "e-m:e-p270:32:32-p271:32:32-p272:64:64-i64:64-i128:128-f80:128-n8:16:32:64-S128"
target triple = "x86_64-unknown-linux-gnu"

%"struct.EA::Thread::ThreadTime" = type { %struct.timespec }
%struct.timespec = type { i64, i64 }
%"struct.EA::StdC::OSGlobalNode" = type { %"struct.EA::StdC::intrusive_list_node", i32, i32 }
%"struct.EA::StdC::intrusive_list_node" = type { ptr, ptr }
%"struct.(anonymous namespace)::OSGlobalManager" = type { %"class.EA::StdC::intrusive_list", i32, [4 x i8], %"class.EA::StdC::Mutex" }
%"class.EA::StdC::intrusive_list" = type { %"class.EA::StdC::intrusive_list_base" }
%"class.EA::StdC::intrusive_list_base" = type { %"struct.EA::StdC::intrusive_list_node" }
%"class.EA::StdC::Mutex" = type { %"class.EA::Thread::Mutex" }
%"class.EA::Thread::Mutex" = type { %struct.EAMutexData }
%struct.EAMutexData = type <{ %union.pthread_mutex_t, i32, [4 x i8] }>
%union.pthread_mutex_t = type { %struct.__pthread_mutex_s }
%struct.__pthread_mutex_s = type { i32, i32, i32, i32, i32, i16, i16, %struct.__pthread_internal_list }
%struct.__pthread_internal_list = type { ptr, ptr }
%"class.EA::StdC::intrusive_list_iterator" = type { ptr }

@_ZN2EA6ThreadL12kTimeoutNoneE = internal global %"struct.EA::Thread::ThreadTime" zeroinitializer, align 8
@_ZN12_GLOBAL__N_117gpOSGlobalManagerE = internal global ptr null, align 8
@_ZN12_GLOBAL__N_113gOSGlobalRefsE = internal global i32 0, align 4

; Function Attrs: mustprogress nounwind uwtable
define linkonce_odr dso_local void @_ZN2EA4StdC23intrusive_list_iteratorINS0_12OSGlobalNodeEPS2_RS2_EC2ES3_(ptr noundef nonnull align 8 dereferenceable(8) %this, ptr noundef %pNode) unnamed_addr #1 comdat align 2 {
entry:
  %this.addr = alloca ptr, align 8
  %pNode.addr = alloca ptr, align 8
  store ptr %this, ptr %this.addr, align 8
  store ptr %pNode, ptr %pNode.addr, align 8
  %this1 = load ptr, ptr %this.addr, align 8
  %mpNode = getelementptr inbounds %"class.EA::StdC::intrusive_list_iterator", ptr %this1, i32 0, i32 0
  %0 = load ptr, ptr %pNode.addr, align 8
  store ptr %0, ptr %mpNode, align 8
  ret void
}

; Function Attrs: mustprogress uwtable
define linkonce_odr dso_local void @_ZN2EA4StdC5Mutex6UnlockEv(ptr noundef nonnull align 8 dereferenceable(48) %this) #2 comdat align 2 {
entry:
  %this.addr = alloca ptr, align 8
  store ptr %this, ptr %this.addr, align 8
  %this1 = load ptr, ptr %this.addr, align 8
  %mMutex = getelementptr inbounds %"class.EA::StdC::Mutex", ptr %this1, i32 0, i32 0
  %call = call noundef i32 @_ZN2EA6Thread5Mutex6UnlockEv(ptr noundef nonnull align 8 dereferenceable(48) %mMutex)
  ret void
}

; Function Attrs: mustprogress nounwind uwtable
define linkonce_odr dso_local noundef i32 @_ZN2EA6Thread20AtomicFetchIncrementEPVj(ptr noundef %dest) #1 comdat {
entry:
  %dest.addr = alloca ptr, align 8
  store ptr %dest, ptr %dest.addr, align 8
  %0 = load ptr, ptr %dest.addr, align 8
  %1 = atomicrmw add ptr %0, i32 1 seq_cst, align 4
  ret i32 %1
}

; Function Attrs: mustprogress nounwind uwtable
define linkonce_odr dso_local void @_ZN2EA4StdC14intrusive_listINS0_12OSGlobalNodeEE10push_frontERS2_(ptr noundef nonnull align 8 dereferenceable(16) %this, ptr noundef nonnull align 8 dereferenceable(24) %x) #1 comdat align 2 {
entry:
  %this.addr = alloca ptr, align 8
  %x.addr = alloca ptr, align 8
  store ptr %this, ptr %this.addr, align 8
  store ptr %x, ptr %x.addr, align 8
  %this1 = load ptr, ptr %this.addr, align 8
  %mAnchor = getelementptr inbounds %"class.EA::StdC::intrusive_list_base", ptr %this1, i32 0, i32 0
  %mpNext = getelementptr inbounds %"struct.EA::StdC::intrusive_list_node", ptr %mAnchor, i32 0, i32 0
  %0 = load ptr, ptr %mpNext, align 8
  %1 = load ptr, ptr %x.addr, align 8
  %mpNext2 = getelementptr inbounds %"struct.EA::StdC::intrusive_list_node", ptr %1, i32 0, i32 0
  store ptr %0, ptr %mpNext2, align 8
  %mAnchor3 = getelementptr inbounds %"class.EA::StdC::intrusive_list_base", ptr %this1, i32 0, i32 0
  %2 = load ptr, ptr %x.addr, align 8
  %mpPrev = getelementptr inbounds %"struct.EA::StdC::intrusive_list_node", ptr %2, i32 0, i32 1
  store ptr %mAnchor3, ptr %mpPrev, align 8
  %3 = load ptr, ptr %x.addr, align 8
  %mAnchor4 = getelementptr inbounds %"class.EA::StdC::intrusive_list_base", ptr %this1, i32 0, i32 0
  %mpNext5 = getelementptr inbounds %"struct.EA::StdC::intrusive_list_node", ptr %mAnchor4, i32 0, i32 0
  store ptr %3, ptr %mpNext5, align 8
  %4 = load ptr, ptr %x.addr, align 8
  %5 = load ptr, ptr %x.addr, align 8
  %mpNext6 = getelementptr inbounds %"struct.EA::StdC::intrusive_list_node", ptr %5, i32 0, i32 0
  %6 = load ptr, ptr %mpNext6, align 8
  %mpPrev7 = getelementptr inbounds %"struct.EA::StdC::intrusive_list_node", ptr %6, i32 0, i32 1
  store ptr %4, ptr %mpPrev7, align 8
  ret void
}

; Function Attrs: mustprogress nounwind uwtable
define linkonce_odr dso_local noundef i32 @_ZN2EA6Thread14AtomicSetValueEPVjj(ptr noundef %dest, i32 noundef %value) #1 comdat {
entry:
  %dest.addr = alloca ptr, align 8
  %value.addr = alloca i32, align 4
  store ptr %dest, ptr %dest.addr, align 8
  store i32 %value, ptr %value.addr, align 4
  %0 = load ptr, ptr %dest.addr, align 8
  %1 = load i32, ptr %value.addr, align 4
  %2 = atomicrmw xchg ptr %0, i32 %1 seq_cst, align 4
  ret i32 %2
}

; Function Attrs: mustprogress nounwind uwtable
define linkonce_odr dso_local noundef nonnull align 8 dereferenceable(8) ptr @_ZN2EA4StdC23intrusive_list_iteratorINS0_12OSGlobalNodeEPS2_RS2_EppEv(ptr noundef nonnull align 8 dereferenceable(8) %this) #1 comdat align 2 {
entry:
  %this.addr = alloca ptr, align 8
  store ptr %this, ptr %this.addr, align 8
  %this1 = load ptr, ptr %this.addr, align 8
  %mpNode = getelementptr inbounds %"class.EA::StdC::intrusive_list_iterator", ptr %this1, i32 0, i32 0
  %0 = load ptr, ptr %mpNode, align 8
  %mpNext = getelementptr inbounds %"struct.EA::StdC::intrusive_list_node", ptr %0, i32 0, i32 0
  %1 = load ptr, ptr %mpNext, align 8
  %mpNode2 = getelementptr inbounds %"class.EA::StdC::intrusive_list_iterator", ptr %this1, i32 0, i32 0
  store ptr %1, ptr %mpNode2, align 8
  ret ptr %this1
}

; Function Attrs: mustprogress nounwind uwtable
define linkonce_odr dso_local noundef nonnull align 8 dereferenceable(24) ptr @_ZNK2EA4StdC23intrusive_list_iteratorINS0_12OSGlobalNodeEPS2_RS2_EdeEv(ptr noundef nonnull align 8 dereferenceable(8) %this) #1 comdat align 2 {
entry:
  %this.addr = alloca ptr, align 8
  store ptr %this, ptr %this.addr, align 8
  %this1 = load ptr, ptr %this.addr, align 8
  %mpNode = getelementptr inbounds %"class.EA::StdC::intrusive_list_iterator", ptr %this1, i32 0, i32 0
  %0 = load ptr, ptr %mpNode, align 8
  ret ptr %0
}

; Function Attrs: mustprogress nounwind uwtable
define linkonce_odr dso_local noundef zeroext i1 @_ZN2EA4StdCneINS0_12OSGlobalNodeEPS2_RS2_EEbRKNS0_23intrusive_list_iteratorIT_T0_T1_EESB_(ptr noundef nonnull align 8 dereferenceable(8) %a, ptr noundef nonnull align 8 dereferenceable(8) %b) #1 comdat {
entry:
  %a.addr = alloca ptr, align 8
  %b.addr = alloca ptr, align 8
  store ptr %a, ptr %a.addr, align 8
  store ptr %b, ptr %b.addr, align 8
  %0 = load ptr, ptr %a.addr, align 8
  %mpNode = getelementptr inbounds %"class.EA::StdC::intrusive_list_iterator", ptr %0, i32 0, i32 0
  %1 = load ptr, ptr %mpNode, align 8
  %2 = load ptr, ptr %b.addr, align 8
  %mpNode1 = getelementptr inbounds %"class.EA::StdC::intrusive_list_iterator", ptr %2, i32 0, i32 0
  %3 = load ptr, ptr %mpNode1, align 8
  %cmp = icmp ne ptr %1, %3
  ret i1 %cmp
}

; Function Attrs: mustprogress uwtable
define linkonce_odr dso_local void @_ZN2EA4StdC14intrusive_listINS0_12OSGlobalNodeEE3endEv(ptr noalias sret(%"class.EA::StdC::intrusive_list_iterator") align 8 %agg.result, ptr noundef nonnull align 8 dereferenceable(16) %this) #2 comdat align 2 {
entry:
  %result.ptr = alloca ptr, align 8
  %this.addr = alloca ptr, align 8
  store ptr %agg.result, ptr %result.ptr, align 8
  store ptr %this, ptr %this.addr, align 8
  %this1 = load ptr, ptr %this.addr, align 8
  %mAnchor = getelementptr inbounds %"class.EA::StdC::intrusive_list_base", ptr %this1, i32 0, i32 0
  call void @_ZN2EA4StdC23intrusive_list_iteratorINS0_12OSGlobalNodeEPS2_RS2_EC2ES3_(ptr noundef nonnull align 8 dereferenceable(8) %agg.result, ptr noundef %mAnchor)
  ret void
}

; Function Attrs: mustprogress uwtable
define linkonce_odr dso_local void @_ZN2EA4StdC14intrusive_listINS0_12OSGlobalNodeEE5beginEv(ptr noalias sret(%"class.EA::StdC::intrusive_list_iterator") align 8 %agg.result, ptr noundef nonnull align 8 dereferenceable(16) %this) #2 comdat align 2 {
entry:
  %result.ptr = alloca ptr, align 8
  %this.addr = alloca ptr, align 8
  store ptr %agg.result, ptr %result.ptr, align 8
  store ptr %this, ptr %this.addr, align 8
  %this1 = load ptr, ptr %this.addr, align 8
  %mAnchor = getelementptr inbounds %"class.EA::StdC::intrusive_list_base", ptr %this1, i32 0, i32 0
  %mpNext = getelementptr inbounds %"struct.EA::StdC::intrusive_list_node", ptr %mAnchor, i32 0, i32 0
  %0 = load ptr, ptr %mpNext, align 8
  call void @_ZN2EA4StdC23intrusive_list_iteratorINS0_12OSGlobalNodeEPS2_RS2_EC2ES3_(ptr noundef nonnull align 8 dereferenceable(8) %agg.result, ptr noundef %0)
  ret void
}

; Function Attrs: mustprogress uwtable
define linkonce_odr dso_local void @_ZN2EA4StdC5Mutex4LockEv(ptr noundef nonnull align 8 dereferenceable(48) %this) #2 comdat align 2 {
entry:
  %this.addr = alloca ptr, align 8
  store ptr %this, ptr %this.addr, align 8
  %this1 = load ptr, ptr %this.addr, align 8
  %mMutex = getelementptr inbounds %"class.EA::StdC::Mutex", ptr %this1, i32 0, i32 0
  %call = call noundef i32 @_ZN2EA6Thread5Mutex4LockERKNS0_10ThreadTimeE(ptr noundef nonnull align 8 dereferenceable(48) %mMutex, ptr noundef nonnull align 8 dereferenceable(16) @_ZN2EA6ThreadL12kTimeoutNoneE)
  ret void
}

; Function Attrs: mustprogress uwtable
define internal void @_ZN12_GLOBAL__N_115OSGlobalManager6UnlockEv(ptr noundef nonnull align 8 dereferenceable(72) %this) #2 align 2 {
entry:
  %this.addr = alloca ptr, align 8
  store ptr %this, ptr %this.addr, align 8
  %this1 = load ptr, ptr %this.addr, align 8
  %mcsLock = getelementptr inbounds %"struct.(anonymous namespace)::OSGlobalManager", ptr %this1, i32 0, i32 3
  call void @_ZN2EA4StdC5Mutex6UnlockEv(ptr noundef nonnull align 8 dereferenceable(48) %mcsLock)
  ret void
}

; Function Attrs: mustprogress uwtable
define linkonce_odr dso_local noundef i32 @_ZN2EA4StdC15AtomicIncrementEPj(ptr noundef %pValue) #2 comdat {
entry:
  %pValue.addr = alloca ptr, align 8
  store ptr %pValue, ptr %pValue.addr, align 8
  %0 = load ptr, ptr %pValue.addr, align 8
  %call = call noundef i32 @_ZN2EA6Thread20AtomicFetchIncrementEPVj(ptr noundef %0)
  %add = add i32 %call, 1
  ret i32 %add
}

; Function Attrs: mustprogress uwtable
define internal void @_ZN12_GLOBAL__N_115OSGlobalManager3AddEPN2EA4StdC12OSGlobalNodeE(ptr noundef nonnull align 8 dereferenceable(72) %this, ptr noundef %p) #2 align 2 {
entry:
  %this.addr = alloca ptr, align 8
  %p.addr = alloca ptr, align 8
  store ptr %this, ptr %this.addr, align 8
  store ptr %p, ptr %p.addr, align 8
  %this1 = load ptr, ptr %this.addr, align 8
  %mOSGlobalList = getelementptr inbounds %"struct.(anonymous namespace)::OSGlobalManager", ptr %this1, i32 0, i32 0
  %0 = load ptr, ptr %p.addr, align 8
  call void @_ZN2EA4StdC14intrusive_listINS0_12OSGlobalNodeEE10push_frontERS2_(ptr noundef nonnull align 8 dereferenceable(16) %mOSGlobalList, ptr noundef nonnull align 8 dereferenceable(24) %0)
  ret void
}

; Function Attrs: mustprogress uwtable
define linkonce_odr dso_local noundef i32 @_ZN2EA4StdC9AtomicSetEPjj(ptr noundef %pValue, i32 noundef %newValue) #2 comdat {
entry:
  %pValue.addr = alloca ptr, align 8
  %newValue.addr = alloca i32, align 4
  store ptr %pValue, ptr %pValue.addr, align 8
  store i32 %newValue, ptr %newValue.addr, align 4
  %0 = load ptr, ptr %pValue.addr, align 8
  %1 = load i32, ptr %newValue.addr, align 4
  %call = call noundef i32 @_ZN2EA6Thread14AtomicSetValueEPVjj(ptr noundef %0, i32 noundef %1)
  ret i32 %call
}

; Function Attrs: mustprogress uwtable
define internal noundef ptr @_ZN12_GLOBAL__N_115OSGlobalManager4FindEj(ptr noundef nonnull align 8 dereferenceable(72) %this, i32 noundef %id) #2 align 2 {
entry:
  %retval = alloca ptr, align 8
  %this.addr = alloca ptr, align 8
  %id.addr = alloca i32, align 4
  %it = alloca %"class.EA::StdC::intrusive_list_iterator", align 8
  %itEnd = alloca %"class.EA::StdC::intrusive_list_iterator", align 8
  %node = alloca ptr, align 8
  store ptr %this, ptr %this.addr, align 8
  store i32 %id, ptr %id.addr, align 4
  %this1 = load ptr, ptr %this.addr, align 8
  %mOSGlobalList = getelementptr inbounds %"struct.(anonymous namespace)::OSGlobalManager", ptr %this1, i32 0, i32 0
  call void @_ZN2EA4StdC14intrusive_listINS0_12OSGlobalNodeEE5beginEv(ptr sret(%"class.EA::StdC::intrusive_list_iterator") align 8 %it, ptr noundef nonnull align 8 dereferenceable(16) %mOSGlobalList)
  %mOSGlobalList2 = getelementptr inbounds %"struct.(anonymous namespace)::OSGlobalManager", ptr %this1, i32 0, i32 0
  call void @_ZN2EA4StdC14intrusive_listINS0_12OSGlobalNodeEE3endEv(ptr sret(%"class.EA::StdC::intrusive_list_iterator") align 8 %itEnd, ptr noundef nonnull align 8 dereferenceable(16) %mOSGlobalList2)
  br label %for.cond

for.cond:                                         ; preds = %for.inc, %entry
  %call = call noundef zeroext i1 @_ZN2EA4StdCneINS0_12OSGlobalNodeEPS2_RS2_EEbRKNS0_23intrusive_list_iteratorIT_T0_T1_EESB_(ptr noundef nonnull align 8 dereferenceable(8) %it, ptr noundef nonnull align 8 dereferenceable(8) %itEnd)
  br i1 %call, label %for.body, label %for.end

for.body:                                         ; preds = %for.cond
  %call3 = call noundef nonnull align 8 dereferenceable(24) ptr @_ZNK2EA4StdC23intrusive_list_iteratorINS0_12OSGlobalNodeEPS2_RS2_EdeEv(ptr noundef nonnull align 8 dereferenceable(8) %it)
  store ptr %call3, ptr %node, align 8
  %0 = load ptr, ptr %node, align 8
  %mOSGlobalID = getelementptr inbounds %"struct.EA::StdC::OSGlobalNode", ptr %0, i32 0, i32 1
  %1 = load i32, ptr %mOSGlobalID, align 8
  %2 = load i32, ptr %id.addr, align 4
  %cmp = icmp eq i32 %1, %2
  br i1 %cmp, label %if.then, label %if.end

if.then:                                          ; preds = %for.body
  %3 = load ptr, ptr %node, align 8
  store ptr %3, ptr %retval, align 8
  br label %return

if.end:                                           ; preds = %for.body
  br label %for.inc

for.inc:                                          ; preds = %if.end
  %call4 = call noundef nonnull align 8 dereferenceable(8) ptr @_ZN2EA4StdC23intrusive_list_iteratorINS0_12OSGlobalNodeEPS2_RS2_EppEv(ptr noundef nonnull align 8 dereferenceable(8) %it)
  br label %for.cond, !llvm.loop !5

for.end:                                          ; preds = %for.cond
  store ptr null, ptr %retval, align 8
  br label %return

return:                                           ; preds = %for.end, %if.then
  %4 = load ptr, ptr %retval, align 8
  ret ptr %4
}

; Function Attrs: mustprogress uwtable
define internal void @_ZN12_GLOBAL__N_115OSGlobalManager4LockEv(ptr noundef nonnull align 8 dereferenceable(72) %this) #2 align 2 {
entry:
  %this.addr = alloca ptr, align 8
  store ptr %this, ptr %this.addr, align 8
  %this1 = load ptr, ptr %this.addr, align 8
  %mcsLock = getelementptr inbounds %"struct.(anonymous namespace)::OSGlobalManager", ptr %this1, i32 0, i32 3
  call void @_ZN2EA4StdC5Mutex4LockEv(ptr noundef nonnull align 8 dereferenceable(48) %mcsLock)
  ret void
}

; Function Attrs: mustprogress uwtable
define dso_local noundef ptr @_ZN2EA4StdC11GetOSGlobalEjPFPNS0_12OSGlobalNodeEvE(i32 noundef %id, ptr noundef %pFactory) #2 {
entry:
  %retval = alloca ptr, align 8
  %id.addr = alloca i32, align 4
  %pFactory.addr = alloca ptr, align 8
  %p = alloca ptr, align 8
  store i32 %id, ptr %id.addr, align 4
  store ptr %pFactory, ptr %pFactory.addr, align 8
  %call = call noundef zeroext i1 @_ZN12_GLOBAL__N_118InitOSGlobalSystemEv()
  br i1 %call, label %if.end, label %if.then

if.then:                                          ; preds = %entry
  store ptr null, ptr %retval, align 8
  br label %return

if.end:                                           ; preds = %entry
  %0 = load ptr, ptr @_ZN12_GLOBAL__N_117gpOSGlobalManagerE, align 8
  call void @_ZN12_GLOBAL__N_115OSGlobalManager4LockEv(ptr noundef nonnull align 8 dereferenceable(72) %0)
  %1 = load ptr, ptr @_ZN12_GLOBAL__N_117gpOSGlobalManagerE, align 8
  %2 = load i32, ptr %id.addr, align 4
  %call1 = call noundef ptr @_ZN12_GLOBAL__N_115OSGlobalManager4FindEj(ptr noundef nonnull align 8 dereferenceable(72) %1, i32 noundef %2)
  store ptr %call1, ptr %p, align 8
  %3 = load ptr, ptr %p, align 8
  %tobool = icmp ne ptr %3, null
  br i1 %tobool, label %if.end6, label %land.lhs.true

land.lhs.true:                                    ; preds = %if.end
  %4 = load ptr, ptr %pFactory.addr, align 8
  %tobool2 = icmp ne ptr %4, null
  br i1 %tobool2, label %if.then3, label %if.end6

if.then3:                                         ; preds = %land.lhs.true
  %5 = load ptr, ptr %pFactory.addr, align 8
  %call4 = call noundef ptr %5()
  store ptr %call4, ptr %p, align 8
  %6 = load i32, ptr %id.addr, align 4
  %7 = load ptr, ptr %p, align 8
  %mOSGlobalID = getelementptr inbounds %"struct.EA::StdC::OSGlobalNode", ptr %7, i32 0, i32 1
  store i32 %6, ptr %mOSGlobalID, align 8
  %8 = load ptr, ptr %p, align 8
  %mOSGlobalRefCount = getelementptr inbounds %"struct.EA::StdC::OSGlobalNode", ptr %8, i32 0, i32 2
  %call5 = call noundef i32 @_ZN2EA4StdC9AtomicSetEPjj(ptr noundef %mOSGlobalRefCount, i32 noundef 0)
  %9 = load ptr, ptr @_ZN12_GLOBAL__N_117gpOSGlobalManagerE, align 8
  %10 = load ptr, ptr %p, align 8
  call void @_ZN12_GLOBAL__N_115OSGlobalManager3AddEPN2EA4StdC12OSGlobalNodeE(ptr noundef nonnull align 8 dereferenceable(72) %9, ptr noundef %10)
  br label %if.end6

if.end6:                                          ; preds = %if.then3, %land.lhs.true, %if.end
  %11 = load ptr, ptr %p, align 8
  %tobool7 = icmp ne ptr %11, null
  br i1 %tobool7, label %if.then8, label %if.end12

if.then8:                                         ; preds = %if.end6
  %12 = load ptr, ptr %p, align 8
  %mOSGlobalRefCount9 = getelementptr inbounds %"struct.EA::StdC::OSGlobalNode", ptr %12, i32 0, i32 2
  %call10 = call noundef i32 @_ZN2EA4StdC15AtomicIncrementEPj(ptr noundef %mOSGlobalRefCount9)
  %call11 = call noundef i32 @_ZN2EA4StdC15AtomicIncrementEPj(ptr noundef @_ZN12_GLOBAL__N_113gOSGlobalRefsE)
  br label %if.end12

if.end12:                                         ; preds = %if.then8, %if.end6
  %13 = load ptr, ptr @_ZN12_GLOBAL__N_117gpOSGlobalManagerE, align 8
  call void @_ZN12_GLOBAL__N_115OSGlobalManager6UnlockEv(ptr noundef nonnull align 8 dereferenceable(72) %13)
  %14 = load ptr, ptr %p, align 8
  store ptr %14, ptr %retval, align 8
  br label %return

return:                                           ; preds = %if.end12, %if.then
  %15 = load ptr, ptr %retval, align 8
  ret ptr %15
}