; Function Attrs: mustprogress uwtable
define dso_local noundef ptr @_ZN2EA4StdC11GetOSGlobalEjPFPNS0_12OSGlobalNodeEvE(i32 noundef %id, ptr noundef readonly %pFactory) local_unnamed_addr #0 {
entry:
  %call = tail call fastcc noundef zeroext i1 @_ZN12_GLOBAL__N_118InitOSGlobalSystemEv()
  br i1 %call, label %if.end, label %return

if.end:                                           ; preds = %entry
  %0 = load ptr, ptr @_ZN12_GLOBAL__N_117gpOSGlobalManagerE, align 8
  %mcsLock.i = getelementptr inbounds nuw i8, ptr %0, i64 24
  %call.i.i = tail call noundef i32 @_ZN2EA6Thread5Mutex4LockERKNS0_10ThreadTimeE(ptr noundef nonnull align 8 dereferenceable(48) %mcsLock.i, ptr noundef nonnull align 8 dereferenceable(16) @_ZN2EA6ThreadL12kTimeoutNoneE)
  %1 = load ptr, ptr @_ZN12_GLOBAL__N_117gpOSGlobalManagerE, align 8
  br label %for.cond.i

for.cond.i:                                       ; preds = %for.body.i, %if.end
  %it.sroa.0.0.in.i = phi ptr [ %1, %if.end ], [ %it.sroa.0.0.i, %for.body.i ]
  %it.sroa.0.0.i = load ptr, ptr %it.sroa.0.0.in.i, align 8
  %cmp.i.not.i = icmp eq ptr %it.sroa.0.0.i, %1
  br i1 %cmp.i.not.i, label %_ZN12_GLOBAL__N_115OSGlobalManager4FindEj.exit, label %for.body.i

for.body.i:                                       ; preds = %for.cond.i
  %mOSGlobalID.i = getelementptr inbounds nuw i8, ptr %it.sroa.0.0.i, i64 16
  %2 = load i32, ptr %mOSGlobalID.i, align 8
  %cmp.i = icmp eq i32 %2, %id
  br i1 %cmp.i, label %if.then8, label %for.cond.i, !llvm.loop !5

_ZN12_GLOBAL__N_115OSGlobalManager4FindEj.exit:   ; preds = %for.cond.i
  %tobool2.not = icmp eq ptr %pFactory, null
  br i1 %tobool2.not, label %if.end12, label %if.then3

if.then3:                                         ; preds = %_ZN12_GLOBAL__N_115OSGlobalManager4FindEj.exit
  %call4 = tail call noundef ptr %pFactory()
  %mOSGlobalID = getelementptr inbounds nuw i8, ptr %call4, i64 16
  store i32 %id, ptr %mOSGlobalID, align 8
  %mOSGlobalRefCount = getelementptr inbounds nuw i8, ptr %call4, i64 20
  %3 = atomicrmw xchg ptr %mOSGlobalRefCount, i32 0 seq_cst, align 4
  %4 = load ptr, ptr @_ZN12_GLOBAL__N_117gpOSGlobalManagerE, align 8
  %5 = load ptr, ptr %4, align 8
  store ptr %5, ptr %call4, align 8
  %mpPrev.i.i = getelementptr inbounds nuw i8, ptr %call4, i64 8
  store ptr %4, ptr %mpPrev.i.i, align 8
  store ptr %call4, ptr %4, align 8
  %6 = load ptr, ptr %call4, align 8
  %mpPrev7.i.i = getelementptr inbounds nuw i8, ptr %6, i64 8
  store ptr %call4, ptr %mpPrev7.i.i, align 8
  br label %if.then8

if.then8:                                         ; preds = %for.body.i, %if.then3
  %p.0.ph = phi ptr [ %call4, %if.then3 ], [ %it.sroa.0.0.i, %for.body.i ]
  %mOSGlobalRefCount9 = getelementptr inbounds nuw i8, ptr %p.0.ph, i64 20
  %7 = atomicrmw add ptr %mOSGlobalRefCount9, i32 1 seq_cst, align 4
  %8 = atomicrmw add ptr @_ZN12_GLOBAL__N_113gOSGlobalRefsE, i32 1 seq_cst, align 4
  %.pre = load ptr, ptr @_ZN12_GLOBAL__N_117gpOSGlobalManagerE, align 8
  br label %if.end12

if.end12:                                         ; preds = %_ZN12_GLOBAL__N_115OSGlobalManager4FindEj.exit, %if.then8
  %9 = phi ptr [ %.pre, %if.then8 ], [ %1, %_ZN12_GLOBAL__N_115OSGlobalManager4FindEj.exit ]
  %p.019 = phi ptr [ %p.0.ph, %if.then8 ], [ null, %_ZN12_GLOBAL__N_115OSGlobalManager4FindEj.exit ]
  %mcsLock.i10 = getelementptr inbounds nuw i8, ptr %9, i64 24
  %call.i.i11 = tail call noundef i32 @_ZN2EA6Thread5Mutex6UnlockEv(ptr noundef nonnull align 8 dereferenceable(48) %mcsLock.i10)
  br label %return

return:                                           ; preds = %entry, %if.end12
  %retval.0 = phi ptr [ %p.019, %if.end12 ], [ null, %entry ]
  ret ptr %retval.0
}